; Function Attrs: mustprogress uwtable
define noundef zeroext i1 @_ZN32pxrInternal_v0_24__pxrReserved__26SdfNamespaceEdit_Namespace7_RemoveERKNS_7SdfPathEPNSt7__cxx1112basic_stringIcSt11char_traitsIcESaIcEEE(ptr noundef nonnull align 8 dereferenceable(144) %0, ptr noundef nonnull align 4 dereferenceable(8) %1, ptr noundef %2) local_unnamed_addr #0 align 2 {
  %4 = alloca %"class.pxrInternal_v0_24__pxrReserved__::TfCallContext", align 8
  %5 = alloca %"class.pxrInternal_v0_24__pxrReserved__::TfCallContext", align 8
  %6 = tail call noundef ptr @_ZN32pxrInternal_v0_24__pxrReserved__26SdfNamespaceEdit_Namespace14_GetNodeAtPathERKNS_7SdfPathE(ptr noundef nonnull align 8 dereferenceable(144) %0, ptr noundef nonnull align 4 dereferenceable(8) %1)
  %.not = icmp eq ptr %6, null
  br i1 %.not, label %7, label %.critedge

7:                                                ; preds = %3
  store ptr @.str.2, ptr %5, align 8
  %8 = getelementptr inbounds nuw i8, ptr %5, i64 8
  store ptr @__func__._ZN32pxrInternal_v0_24__pxrReserved__26SdfNamespaceEdit_Namespace7_RemoveERKNS_7SdfPathEPNSt7__cxx1112basic_stringIcSt11char_traitsIcESaIcEEE, ptr %8, align 8
  %9 = getelementptr inbounds nuw i8, ptr %5, i64 16
  store i64 497, ptr %9, align 8
  %10 = getelementptr inbounds nuw i8, ptr %5, i64 24
  store ptr @__PRETTY_FUNCTION__._ZN32pxrInternal_v0_24__pxrReserved__26SdfNamespaceEdit_Namespace7_RemoveERKNS_7SdfPathEPNSt7__cxx1112basic_stringIcSt11char_traitsIcESaIcEEE, ptr %10, align 8
  %11 = getelementptr inbounds nuw i8, ptr %5, i64 32
  store i8 0, ptr %11, align 8
  %12 = call noundef zeroext i1 @_ZN32pxrInternal_v0_24__pxrReserved__21Tf_FailedVerifyHelperERKNS_13TfCallContextEPKcS4_(ptr noundef nonnull align 8 dereferenceable(33) %5, ptr noundef nonnull @.str.16, ptr noundef null)
  br i1 %12, label %.critedge, label %13

13:                                               ; preds = %7
  %14 = call noundef nonnull align 8 dereferenceable(32) ptr @_ZNSt7__cxx1112basic_stringIcSt11char_traitsIcESaIcEEaSEPKc(ptr noundef nonnull align 8 dereferenceable(32) %2, ptr noundef nonnull @.str.17)
  br label %30

.critedge:                                        ; preds = %3, %7
  %15 = call noundef zeroext i1 @_ZN32pxrInternal_v0_24__pxrReserved__26SdfNamespaceEdit_Namespace5_Node6RemoveEPNSt7__cxx1112basic_stringIcSt11char_traitsIcESaIcEEE(ptr noundef nonnull align 8 dereferenceable(40) %6, ptr noundef %2)
  br i1 %15, label %16, label %30

16:                                               ; preds = %.critedge
  call void @_ZN32pxrInternal_v0_24__pxrReserved__26SdfNamespaceEdit_Namespace5_NodeD2Ev(ptr noundef nonnull align 8 dereferenceable(40) %6) #24
  call void @_ZdlPvm(ptr noundef nonnull %6, i64 noundef 40) #25
  %17 = load i8, ptr %0, align 8
  %18 = trunc i8 %17 to i1
  br i1 %18, label %19, label %20

19:                                               ; preds = %16
  call void @_ZN32pxrInternal_v0_24__pxrReserved__26SdfNamespaceEdit_Namespace19_RemoveBackpointersERKNS_7SdfPathE(ptr noundef nonnull align 8 dereferenceable(144) %0, ptr noundef nonnull align 4 dereferenceable(8) %1)
  br label %20

20:                                               ; preds = %19, %16
  call void @llvm.lifetime.start.p0(i64 40, ptr nonnull %4)
  %21 = call noundef nonnull align 4 dereferenceable(8) ptr @_ZN32pxrInternal_v0_24__pxrReserved__7SdfPath16AbsoluteRootPathEv()
  %.0.copyload.i.i.i.i = load i64, ptr %1, align 4
  %.0.copyload.i2.i.i.i = load i64, ptr %21, align 4
  %.not.i = icmp eq i64 %.0.copyload.i.i.i.i, %.0.copyload.i2.i.i.i
  br i1 %.not.i, label %22, label %.critedge.i

22:                                               ; preds = %20
  store ptr @.str.2, ptr %4, align 8
  %23 = getelementptr inbounds nuw i8, ptr %4, i64 8
  store ptr @__func__._ZN32pxrInternal_v0_24__pxrReserved__26SdfNamespaceEdit_Namespace13_AddDeadspaceERKNS_7SdfPathE, ptr %23, align 8
  %24 = getelementptr inbounds nuw i8, ptr %4, i64 16
  store i64 628, ptr %24, align 8
  %25 = getelementptr inbounds nuw i8, ptr %4, i64 24
  store ptr @__PRETTY_FUNCTION__._ZN32pxrInternal_v0_24__pxrReserved__26SdfNamespaceEdit_Namespace13_AddDeadspaceERKNS_7SdfPathE, ptr %25, align 8
  %26 = getelementptr inbounds nuw i8, ptr %4, i64 32
  store i8 0, ptr %26, align 8
  %27 = call noundef zeroext i1 @_ZN32pxrInternal_v0_24__pxrReserved__21Tf_FailedVerifyHelperERKNS_13TfCallContextEPKcS4_(ptr noundef nonnull align 8 dereferenceable(33) %4, ptr noundef nonnull @.str.22, ptr noundef null)
  br i1 %27, label %.critedge.i, label %_ZN32pxrInternal_v0_24__pxrReserved__26SdfNamespaceEdit_Namespace13_AddDeadspaceERKNS_7SdfPathE.exit

.critedge.i:                                      ; preds = %22, %20
  %28 = getelementptr inbounds nuw i8, ptr %0, i64 48
  %29 = call { ptr, i8 } @_ZNSt8_Rb_treeIN32pxrInternal_v0_24__pxrReserved__7SdfPathES1_St9_IdentityIS1_ESt4lessIS1_ESaIS1_EE16_M_insert_uniqueIRKS1_EESt4pairISt17_Rb_tree_iteratorIS1_EbEOT_(ptr noundef nonnull align 8 dereferenceable(48) %28, ptr noundef nonnull align 4 dereferenceable(8) %1)
  br label %_ZN32pxrInternal_v0_24__pxrReserved__26SdfNamespaceEdit_Namespace13_AddDeadspaceERKNS_7SdfPathE.exit

_ZN32pxrInternal_v0_24__pxrReserved__26SdfNamespaceEdit_Namespace13_AddDeadspaceERKNS_7SdfPathE.exit: ; preds = %22, %.critedge.i
  call void @llvm.lifetime.end.p0(i64 40, ptr nonnull %4)
  br label %30

30:                                               ; preds = %.critedge, %_ZN32pxrInternal_v0_24__pxrReserved__26SdfNamespaceEdit_Namespace13_AddDeadspaceERKNS_7SdfPathE.exit, %13
  %.0 = phi i1 [ false, %13 ], [ true, %_ZN32pxrInternal_v0_24__pxrReserved__26SdfNamespaceEdit_Namespace13_AddDeadspaceERKNS_7SdfPathE.exit ], [ false, %.critedge ]
  ret i1 %.0
}